Certificate:
    Data:
        Version: 3 (0x2)
        Serial Number: 1 (0x1)
    Signature Algorithm: sha256WithRSAEncryption
        Issuer: CN=devcert
        Validity
            Not Before: May  8 14:17:37 2020 GMT
            Not After : Aug 11 14:17:37 2022 GMT
        Subject: CN=localhost
        Subject Public Key Info:
            Public Key Algorithm: rsaEncryption
                Public-Key: (2048 bit)
                Modulus:
                    00:9f:e0:d8:62:70:d4:1a:3c:22:c6:f6:ee:42:85:
                    9a:b5:4a:e2:14:a5:0e:a5:30:f2:b2:d5:d5:36:8a:
                    09:c5:6e:5b:5d:bf:64:0c:91:44:5d:04:b9:64:d5:
                    e5:09:da:90:b6:88:ef:a4:bb:5f:a9:bc:fc:07:fa:
                    f3:e5:85:e0:84:8e:88:d5:a1:6d:68:2f:ad:3a:bf:
                    29:45:82:d6:fd:04:49:b6:17:70:9d:36:f4:a5:e6:
                    c4:39:3e:ad:ca:54:d5:16:ec:8d:4c:eb:b2:41:69:
                    2b:32:01:e4:e9:c5:c8:1f:f7:36:35:44:d3:cc:5d:
                    81:15:20:ab:8a:12:6e:dc:4a:0d:de:d6:94:54:22:
                    f2:1a:dd:64:71:12:74:97:ee:09:0f:df:2a:8a:45:
                    c5:f5:e0:ba:be:5c:f1:77:95:61:d2:08:7a:23:c0:
                    5c:53:28:84:c2:20:9c:7c:b2:b5:32:f8:02:ef:65:
                    21:d3:62:df:c5:3b:85:3f:bc:3c:a2:a3:22:d2:78:
                    8e:2a:66:8e:79:93:5c:a3:20:34:98:0b:0d:7f:8f:
                    0c:44:c8:4e:c0:ba:a8:a7:14:2a:64:bc:9e:04:cb:
                    a7:c4:42:dc:73:54:14:fd:44:cf:d2:c2:09:1a:06:
                    17:f3:8f:35:40:6f:a0:fd:c2:af:66:bd:9d:9c:26:
                    e8:1d
                Exponent: 65537 (0x10001)
        X509v3 extensions:
            X509v3 Basic Constraints: critical
                CA:FALSE
            X509v3 Subject Key Identifier: 
                E3:1D:CA:55:03:07:BF:40:54:0E:1F:FD:82:60:FB:C1:3B:76:32:53
            X509v3 Authority Key Identifier: 
                keyid:42:9F:93:C5:5C:7D:21:CA:DD:71:01:92:66:FF:16:C8:06:A7:22:10
                DirName:/CN=devcert
                serial:FA:6C:F0:5F:E8:DF:72:CC

            X509v3 Key Usage: critical
                Digital Signature, Key Encipherment
            X509v3 Extended Key Usage: 
                TLS Web Server Authentication
            X509v3 Subject Alternative Name: 
                DNS:localhost, DNS:*.localhost
    Signature Algorithm: sha256WithRSAEncryption
         90:2e:9e:8a:26:30:ed:63:d3:cc:9e:3f:30:a4:87:99:f3:93:
         9a:15:94:50:68:75:1b:33:c2:c3:87:94:49:0e:e4:87:ce:b9:
         c8:a8:7f:c6:0b:72:11:bc:5c:64:dc:e7:d3:64:4c:8d:13:ad:
         81:7e:9d:35:f2:e6:07:a7:55:4b:f7:5b:90:03:99:f1:20:b7:
         fc:14:5c:0d:31:a6:9a:01:02:15:63:39:8d:06:74:be:0a:52:
         f8:86:e3:20:28:95:eb:ec:cc:e9:12:3d:74:b4:48:80:9a:65:
         f2:39:d4:a7:92:ed:eb:ca:e6:5c:dd:1a:2a:ed:4a:c7:44:5b:
         db:e2:c9:ef:ac:8f:b6:63:25:1a:a3:8e:85:0c:c6:e5:0c:49:
         7a:cc:3e:7a:ee:79:f6:71:22:fb:dd:0e:7a:16:f5:91:af:f9:
         2e:cf:4d:13:64:ce:a1:d4:aa:e1:d9:76:a0:be:bc:c3:87:e2:
         20:5c:f8:7f:24:43:8a:ec:b1:e9:29:49:24:18:41:16:1f:a7:
         69:e6:e7:45:73:da:38:41:88:11:99:0c:51:84:58:a5:90:2a:
         e1:f9:a5:34:b6:2f:75:58:19:c7:29:12:21:aa:e3:0b:72:6b:
         3c:72:70:f9:5e:08:7c:16:56:56:d5:c9:5c:f1:74:5a:69:de:
         2b:e2:c6:3b
-----BEGIN CERTIFICATE-----
MIIDXjCCAkagAwIBAgIBATANBgkqhkiG9w0BAQsFADASMRAwDgYDVQQDDAdkZXZj
ZXJ0MB4XDTIwMDUwODE0MTczN1oXDTIyMDgxMTE0MTczN1owFDESMBAGA1UEAwwJ
bG9jYWxob3N0MIIBIjANBgkqhkiG9w0BAQEFAAOCAQ8AMIIBCgKCAQEAn+DYYnDU
GjwixvbuQoWatUriFKUOpTDystXVNooJxW5bXb9kDJFEXQS5ZNXlCdqQtojvpLtf
qbz8B/rz5YXghI6I1aFtaC+tOr8pRYLW/QRJthdwnTb0pebEOT6tylTVFuyNTOuy
QWkrMgHk6cXIH/c2NUTTzF2BFSCrihJu3EoN3taUVCLyGt1kcRJ0l+4JD98qikXF
9eC6vlzxd5Vh0gh6I8BcUyiEwiCcfLK1MvgC72Uh02LfxTuFP7w8oqMi0niOKmaO
eZNcoyA0mAsNf48MRMhOwLqopxQqZLyeBMunxELcc1QU/UTP0sIJGgYX8481QG+g
/cKvZr2dnCboHQIDAQABo4G8MIG5MAwGA1UdEwEB/wQCMAAwHQYDVR0OBBYEFOMd
ylUDB79AVA4f/YJg+8E7djJTMEIGA1UdIwQ7MDmAFEKfk8VcfSHK3XEBkmb/FsgG
pyIQoRakFDASMRAwDgYDVQQDDAdkZXZjZXJ0ggkA+mzwX+jfcswwDgYDVR0PAQH/
BAQDAgWgMBMGA1UdJQQMMAoGCCsGAQUFBwMBMCEGA1UdEQQaMBiCCWxvY2FsaG9z
dIILKi5sb2NhbGhvc3QwDQYJKoZIhvcNAQELBQADggEBAJAunoomMO1j08yePzCk
h5nzk5oVlFBodRszwsOHlEkO5IfOuciof8YLchG8XGTc59NkTI0TrYF+nTXy5gen
VUv3W5ADmfEgt/wUXA0xppoBAhVjOY0GdL4KUviG4yAolevszOkSPXS0SICaZfI5
1KeS7evK5lzdGirtSsdEW9viye+sj7ZjJRqjjoUMxuUMSXrMPnruefZxIvvdDnoW
9ZGv+S7PTRNkzqHUquHZdqC+vMOH4iBc+H8kQ4rssekpSSQYQRYfp2nm50Vz2jhB
iBGZDFGEWKWQKuH5pTS2L3VYGccpEiGq4wtyazxycPleCHwWVlbVyVzxdFpp3ivi
xjs=
-----END CERTIFICATE-----
